target datalayout = "e-m:e-p270:32:32-p271:32:32-p272:64:64-i64:64-i128:128-f80:128-n8:16:32:64-S128"
target triple = "x86_64-pc-linux-gnu"

%struct.persist_msg_t = type { ptr, ptr, i16 }
%struct.dbd_list_msg_t = type { ptr, i32 }
%struct.persist_rc_msg_t = type { ptr, i16, i32, i16 }

@plugin_type = dso_local constant [28 x i8] c"accounting_storage/slurmdbd\00", align 16
@first = internal global i32 1, align 4
@.str.7 = private unnamed_addr constant [3 x i8] c"%s\00", align 1
@.str.24 = private unnamed_addr constant [11 x i8] c"%s: %s: %s\00", align 1
@.str.44 = private unnamed_addr constant [27 x i8] c"DBD_GET_CONFIG failure: %m\00", align 1
@__func__.acct_storage_p_get_config = private unnamed_addr constant [26 x i8] c"acct_storage_p_get_config\00", align 1
@.str.45 = private unnamed_addr constant [37 x i8] c"response type not DBD_GOT_CONFIG: %u\00", align 1

; Function Attrs: nounwind uwtable
define dso_local ptr @acct_storage_p_get_config(ptr noundef %0, ptr noundef %1) #0 {
  %3 = alloca ptr, align 8
  %4 = alloca ptr, align 8
  %5 = alloca %struct.persist_msg_t, align 8
  %6 = alloca %struct.persist_msg_t, align 8
  %7 = alloca ptr, align 8
  %8 = alloca i32, align 4
  %9 = alloca ptr, align 8
  %10 = alloca ptr, align 8
  store ptr %0, ptr %3, align 8
  store ptr %1, ptr %4, align 8
  call void @llvm.lifetime.start.p0(i64 24, ptr %5) #9
  call void @llvm.memset.p0.i64(ptr align 8 %5, i8 0, i64 24, i1 false)
  call void @llvm.lifetime.start.p0(i64 24, ptr %6) #9
  call void @llvm.memset.p0.i64(ptr align 8 %6, i8 0, i64 24, i1 false)
  call void @llvm.lifetime.start.p0(i64 8, ptr %7) #9
  call void @llvm.lifetime.start.p0(i64 4, ptr %8) #9
  call void @llvm.lifetime.start.p0(i64 8, ptr %9) #9
  store ptr null, ptr %9, align 8
  %11 = load i32, ptr @first, align 4
  %12 = icmp ne i32 %11, 0
  br i1 %12, label %13, label %15

13:                                               ; preds = %2
  %14 = call i32 @init()
  br label %15

15:                                               ; preds = %13, %2
  %16 = getelementptr inbounds nuw %struct.persist_msg_t, ptr %5, i32 0, i32 2
  store i16 1466, ptr %16, align 8
  %17 = load ptr, ptr %3, align 8
  %18 = getelementptr inbounds nuw %struct.persist_msg_t, ptr %5, i32 0, i32 0
  store ptr %17, ptr %18, align 8
  %19 = load ptr, ptr %4, align 8
  %20 = getelementptr inbounds nuw %struct.persist_msg_t, ptr %5, i32 0, i32 1
  store ptr %19, ptr %20, align 8
  %21 = call i32 @dbd_conn_send_recv(i16 noundef zeroext 11008, ptr noundef %5, ptr noundef %6)
  store i32 %21, ptr %8, align 4
  %22 = load i32, ptr %8, align 4
  %23 = icmp ne i32 %22, 0
  br i1 %23, label %24, label %26

24:                                               ; preds = %15
  %25 = call i32 (ptr, ...) @slurm_error(ptr noundef @.str.44)
  br label %85

26:                                               ; preds = %15
  %27 = getelementptr inbounds nuw %struct.persist_msg_t, ptr %6, i32 0, i32 2
  %28 = load i16, ptr %27, align 8
  %29 = zext i16 %28 to i32
  %30 = icmp eq i32 %29, 1433
  br i1 %30, label %31, label %64

31:                                               ; preds = %26
  call void @llvm.lifetime.start.p0(i64 8, ptr %10) #9
  %32 = getelementptr inbounds nuw %struct.persist_msg_t, ptr %6, i32 0, i32 1
  %33 = load ptr, ptr %32, align 8
  store ptr %33, ptr %10, align 8
  %34 = load ptr, ptr %10, align 8
  %35 = getelementptr inbounds nuw %struct.persist_rc_msg_t, ptr %34, i32 0, i32 2
  %36 = load i32, ptr %35, align 4
  %37 = icmp eq i32 %36, 0
  br i1 %37, label %38, label %53

38:                                               ; preds = %31
  br label %39

39:                                               ; preds = %38
  br label %40

40:                                               ; preds = %39
  %41 = call i32 @slurm_get_log_level()
  %42 = icmp sge i32 %41, 3
  br i1 %42, label %43, label %47

43:                                               ; preds = %40
  %44 = load ptr, ptr %10, align 8
  %45 = getelementptr inbounds nuw %struct.persist_rc_msg_t, ptr %44, i32 0, i32 0
  %46 = load ptr, ptr %45, align 8
  call void (i32, ptr, ...) @slurm_log_var(i32 noundef 3, ptr noundef @.str.24, ptr noundef @plugin_type, ptr noundef @__func__.acct_storage_p_get_config, ptr noundef %46)
  br label %47

47:                                               ; preds = %43, %40
  br label %48

48:                                               ; preds = %47
  br label %49

49:                                               ; preds = %48
  br label %50

50:                                               ; preds = %49
  br label %51

51:                                               ; preds = %50
  %52 = call ptr @slurm_list_create(ptr noundef null)
  store ptr %52, ptr %9, align 8
  br label %62

53:                                               ; preds = %31
  %54 = load ptr, ptr %10, align 8
  %55 = getelementptr inbounds nuw %struct.persist_rc_msg_t, ptr %54, i32 0, i32 2
  %56 = load i32, ptr %55, align 4
  %57 = call ptr @__errno_location() #10
  store i32 %56, ptr %57, align 4
  %58 = load ptr, ptr %10, align 8
  %59 = getelementptr inbounds nuw %struct.persist_rc_msg_t, ptr %58, i32 0, i32 0
  %60 = load ptr, ptr %59, align 8
  %61 = call i32 (ptr, ...) @slurm_error(ptr noundef @.str.7, ptr noundef %60)
  br label %62

62:                                               ; preds = %53, %51
  %63 = load ptr, ptr %10, align 8
  call void @slurm_persist_free_rc_msg(ptr noundef %63)
  call void @llvm.lifetime.end.p0(i64 8, ptr %10) #9
  br label %84

64:                                               ; preds = %26
  %65 = getelementptr inbounds nuw %struct.persist_msg_t, ptr %6, i32 0, i32 2
  %66 = load i16, ptr %65, align 8
  %67 = zext i16 %66 to i32
  %68 = icmp ne i32 %67, 1467
  br i1 %68, label %69, label %74

69:                                               ; preds = %64
  %70 = getelementptr inbounds nuw %struct.persist_msg_t, ptr %6, i32 0, i32 2
  %71 = load i16, ptr %70, align 8
  %72 = zext i16 %71 to i32
  %73 = call i32 (ptr, ...) @slurm_error(ptr noundef @.str.45, i32 noundef %72)
  br label %83

74:                                               ; preds = %64
  %75 = getelementptr inbounds nuw %struct.persist_msg_t, ptr %6, i32 0, i32 1
  %76 = load ptr, ptr %75, align 8
  store ptr %76, ptr %7, align 8
  %77 = load ptr, ptr %7, align 8
  %78 = getelementptr inbounds nuw %struct.dbd_list_msg_t, ptr %77, i32 0, i32 0
  %79 = load ptr, ptr %78, align 8
  store ptr %79, ptr %9, align 8
  %80 = load ptr, ptr %7, align 8
  %81 = getelementptr inbounds nuw %struct.dbd_list_msg_t, ptr %80, i32 0, i32 0
  store ptr null, ptr %81, align 8
  %82 = load ptr, ptr %7, align 8
  call void @slurm_slurmdbd_free_list_msg(ptr noundef %82)
  br label %83

83:                                               ; preds = %74, %69
  br label %84

84:                                               ; preds = %83, %62
  br label %85

85:                                               ; preds = %84, %24
  %86 = load ptr, ptr %9, align 8
  call void @llvm.lifetime.end.p0(i64 8, ptr %9) #9
  call void @llvm.lifetime.end.p0(i64 4, ptr %8) #9
  call void @llvm.lifetime.end.p0(i64 8, ptr %7) #9
  call void @llvm.lifetime.end.p0(i64 24, ptr %6) #9
  call void @llvm.lifetime.end.p0(i64 24, ptr %5) #9
  ret ptr %86
}